target datalayout = "e-m:e-p270:32:32-p271:32:32-p272:64:64-i64:64-i128:128-f80:128-n8:16:32:64-S128"
target triple = "x86_64-pc-linux-gnu"

%"struct.(anonymous namespace)::DumpVisitor" = type <{ i32, i8, [3 x i8] }>
%"class.std::__1::basic_string_view" = type { ptr, i64 }
%"struct.(anonymous namespace)::DumpVisitor::CtorArgPrinter" = type { ptr }
%"class.(anonymous namespace)::itanium_demangle::Node.base" = type <{ ptr, i8, i16 }>
%"class.std::initializer_list" = type { ptr, i64 }
%"class.(anonymous namespace)::itanium_demangle::FloatLiteralImpl.3" = type { %"class.(anonymous namespace)::itanium_demangle::Node.base", %"class.std::__1::basic_string_view" }

@.str.3 = private unnamed_addr constant [2 x i8] c"\0A\00", align 1
@.str.4 = private unnamed_addr constant [2 x i8] c" \00", align 1
@stderr = external global ptr, align 8
@.str.5 = private unnamed_addr constant [3 x i8] c"%s\00", align 1
@.str.8 = private unnamed_addr constant [4 x i8] c"%s(\00", align 1
@.str.9 = private unnamed_addr constant [2 x i8] c")\00", align 1
@.str.17 = private unnamed_addr constant [7 x i8] c"\22%.*s\22\00", align 1
@.str.138 = private unnamed_addr constant [14 x i8] c"DoubleLiteral\00", align 1

; Function Attrs: mustprogress nounwind uwtable
define linkonce_odr hidden noundef ptr @_ZNKSt3__117basic_string_viewIcNS_11char_traitsIcEEE6cbeginB8ne210000Ev(ptr noundef nonnull align 8 dereferenceable(16) %0) #6 comdat align 2 {
  %2 = alloca ptr, align 8
  store ptr %0, ptr %2, align 8, !tbaa !475
  %3 = load ptr, ptr %2, align 8
  %4 = getelementptr inbounds nuw %"class.std::__1::basic_string_view", ptr %3, i32 0, i32 0
  %5 = load ptr, ptr %4, align 8, !tbaa !478
  ret ptr %5
}

; Function Attrs: mustprogress nounwind uwtable
define linkonce_odr hidden noundef ptr @_ZNKSt3__117basic_string_viewIcNS_11char_traitsIcEEE5beginB8ne210000Ev(ptr noundef nonnull align 8 dereferenceable(16) %0) #6 comdat align 2 {
  %2 = alloca ptr, align 8
  store ptr %0, ptr %2, align 8, !tbaa !475
  %3 = load ptr, ptr %2, align 8
  %4 = call noundef ptr @_ZNKSt3__117basic_string_viewIcNS_11char_traitsIcEEE6cbeginB8ne210000Ev(ptr noundef nonnull align 8 dereferenceable(16) %3) #19
  ret ptr %4
}

; Function Attrs: mustprogress nounwind uwtable
define linkonce_odr hidden noundef i64 @_ZNKSt3__117basic_string_viewIcNS_11char_traitsIcEEE4sizeB8ne210000Ev(ptr noundef nonnull align 8 dereferenceable(16) %0) #6 comdat align 2 {
  %2 = alloca ptr, align 8
  store ptr %0, ptr %2, align 8, !tbaa !475
  %3 = load ptr, ptr %2, align 8
  %4 = getelementptr inbounds nuw %"class.std::__1::basic_string_view", ptr %3, i32 0, i32 1
  %5 = load i64, ptr %4, align 8, !tbaa !477
  ret i64 %5
}

; Function Attrs: mustprogress nounwind uwtable
define internal void @_ZN12_GLOBAL__N_111DumpVisitor5printENSt3__117basic_string_viewIcNS1_11char_traitsIcEEEE(ptr noundef nonnull align 4 dereferenceable(5) %0, ptr %1, i64 %2) #6 align 2 {
  %4 = alloca %"class.std::__1::basic_string_view", align 8
  %5 = alloca ptr, align 8
  %6 = getelementptr inbounds nuw { ptr, i64 }, ptr %4, i32 0, i32 0
  store ptr %1, ptr %6, align 8
  %7 = getelementptr inbounds nuw { ptr, i64 }, ptr %4, i32 0, i32 1
  store i64 %2, ptr %7, align 8
  store ptr %0, ptr %5, align 8, !tbaa !9
  %8 = load ptr, ptr @stderr, align 8, !tbaa !242
  %9 = call noundef i64 @_ZNKSt3__117basic_string_viewIcNS_11char_traitsIcEEE4sizeB8ne210000Ev(ptr noundef nonnull align 8 dereferenceable(16) %4) #19
  %10 = trunc i64 %9 to i32
  %11 = call noundef ptr @_ZNKSt3__117basic_string_viewIcNS_11char_traitsIcEEE5beginB8ne210000Ev(ptr noundef nonnull align 8 dereferenceable(16) %4) #19
  %12 = call i32 (ptr, ptr, ...) @fprintf(ptr noundef %8, ptr noundef @.str.17, i32 noundef %10, ptr noundef %11) #19
  ret void
}

; Function Attrs: mustprogress nounwind uwtable
define internal void @_ZN12_GLOBAL__N_111DumpVisitor8printStrEPKc(ptr noundef nonnull align 4 dereferenceable(5) %0, ptr noundef %1) #6 align 2 {
  %3 = alloca ptr, align 8
  %4 = alloca ptr, align 8
  store ptr %0, ptr %3, align 8, !tbaa !9
  store ptr %1, ptr %4, align 8, !tbaa !194
  %5 = load ptr, ptr @stderr, align 8, !tbaa !242
  %6 = load ptr, ptr %4, align 8, !tbaa !194
  %7 = call i32 (ptr, ptr, ...) @fprintf(ptr noundef %5, ptr noundef @.str.5, ptr noundef %6) #19
  ret void
}

; Function Attrs: mustprogress nounwind uwtable
define linkonce_odr hidden noundef ptr @_ZNKSt16initializer_listIbE3endB8ne210000Ev(ptr noundef nonnull align 8 dereferenceable(16) %0) #6 comdat align 2 {
  %2 = alloca ptr, align 8
  store ptr %0, ptr %2, align 8, !tbaa !463
  %3 = load ptr, ptr %2, align 8
  %4 = getelementptr inbounds nuw %"class.std::initializer_list", ptr %3, i32 0, i32 0
  %5 = load ptr, ptr %4, align 8, !tbaa !459
  %6 = getelementptr inbounds nuw %"class.std::initializer_list", ptr %3, i32 0, i32 1
  %7 = load i64, ptr %6, align 8, !tbaa !462
  %8 = getelementptr inbounds nuw i8, ptr %5, i64 %7
  ret ptr %8
}

; Function Attrs: mustprogress nounwind uwtable
define linkonce_odr hidden noundef ptr @_ZNKSt16initializer_listIbE5beginB8ne210000Ev(ptr noundef nonnull align 8 dereferenceable(16) %0) #6 comdat align 2 {
  %2 = alloca ptr, align 8
  store ptr %0, ptr %2, align 8, !tbaa !463
  %3 = load ptr, ptr %2, align 8
  %4 = getelementptr inbounds nuw %"class.std::initializer_list", ptr %3, i32 0, i32 0
  %5 = load ptr, ptr %4, align 8, !tbaa !459
  ret ptr %5
}

; Function Attrs: mustprogress nounwind uwtable
define internal noundef zeroext i1 @_ZN12_GLOBAL__N_111DumpVisitor12wantsNewlineEz(...) #6 align 2 {
  ret i1 false
}

; Function Attrs: mustprogress uwtable
define internal void @_ZN12_GLOBAL__N_111DumpVisitor23printWithPendingNewlineINSt3__117basic_string_viewIcNS2_11char_traitsIcEEEEEEvT_(ptr noundef nonnull align 4 dereferenceable(5) %0, ptr %1, i64 %2) #3 align 2 {
  %4 = alloca %"class.std::__1::basic_string_view", align 8
  %5 = alloca ptr, align 8
  %6 = alloca %"class.std::__1::basic_string_view", align 8
  %7 = alloca %"class.std::__1::basic_string_view", align 8
  %8 = getelementptr inbounds nuw { ptr, i64 }, ptr %4, i32 0, i32 0
  store ptr %1, ptr %8, align 8
  %9 = getelementptr inbounds nuw { ptr, i64 }, ptr %4, i32 0, i32 1
  store i64 %2, ptr %9, align 8
  store ptr %0, ptr %5, align 8, !tbaa !9
  %10 = load ptr, ptr %5, align 8
  call void @llvm.memcpy.p0.p0.i64(ptr align 8 %6, ptr align 8 %4, i64 16, i1 false), !tbaa.struct !474
  %11 = getelementptr inbounds nuw { ptr, i64 }, ptr %6, i32 0, i32 0
  %12 = load ptr, ptr %11, align 8
  %13 = getelementptr inbounds nuw { ptr, i64 }, ptr %6, i32 0, i32 1
  %14 = load i64, ptr %13, align 8
  call void @_ZN12_GLOBAL__N_111DumpVisitor5printENSt3__117basic_string_viewIcNS1_11char_traitsIcEEEE(ptr noundef nonnull align 4 dereferenceable(5) %10, ptr %12, i64 %14)
  call void @llvm.memcpy.p0.p0.i64(ptr align 8 %7, ptr align 8 %4, i64 16, i1 false), !tbaa.struct !474
  %15 = getelementptr inbounds nuw { ptr, i64 }, ptr %7, i32 0, i32 0
  %16 = load ptr, ptr %15, align 8
  %17 = getelementptr inbounds nuw { ptr, i64 }, ptr %7, i32 0, i32 1
  %18 = load i64, ptr %17, align 8
  %19 = call noundef zeroext i1 (...) @_ZN12_GLOBAL__N_111DumpVisitor12wantsNewlineEz(ptr %16, i64 %18)
  br i1 %19, label %20, label %22

20:                                               ; preds = %3
  %21 = getelementptr inbounds nuw %"struct.(anonymous namespace)::DumpVisitor", ptr %10, i32 0, i32 1
  store i8 1, ptr %21, align 4, !tbaa !15
  br label %22

22:                                               ; preds = %20, %3
  ret void
}

; Function Attrs: mustprogress uwtable
define internal void @_ZN12_GLOBAL__N_111DumpVisitor7newLineEv(ptr noundef nonnull align 4 dereferenceable(5) %0) #3 align 2 {
  %2 = alloca ptr, align 8
  %3 = alloca i32, align 4
  store ptr %0, ptr %2, align 8, !tbaa !9
  %4 = load ptr, ptr %2, align 8
  call void @_ZN12_GLOBAL__N_111DumpVisitor8printStrEPKc(ptr noundef nonnull align 4 dereferenceable(5) %4, ptr noundef @.str.3)
  call void @llvm.lifetime.start.p0(i64 4, ptr %3) #19
  store i32 0, ptr %3, align 4, !tbaa !196
  br label %5

5:                                                ; preds = %12, %1
  %6 = load i32, ptr %3, align 4, !tbaa !196
  %7 = getelementptr inbounds nuw %"struct.(anonymous namespace)::DumpVisitor", ptr %4, i32 0, i32 0
  %8 = load i32, ptr %7, align 4, !tbaa !11
  %9 = icmp ne i32 %6, %8
  br i1 %9, label %11, label %10

10:                                               ; preds = %5
  call void @llvm.lifetime.end.p0(i64 4, ptr %3) #19
  br label %15

11:                                               ; preds = %5
  call void @_ZN12_GLOBAL__N_111DumpVisitor8printStrEPKc(ptr noundef nonnull align 4 dereferenceable(5) %4, ptr noundef @.str.4)
  br label %12

12:                                               ; preds = %11
  %13 = load i32, ptr %3, align 4, !tbaa !196
  %14 = add i32 %13, 1
  store i32 %14, ptr %3, align 4, !tbaa !196
  br label %5, !llvm.loop !197

15:                                               ; preds = %10
  %16 = getelementptr inbounds nuw %"struct.(anonymous namespace)::DumpVisitor", ptr %4, i32 0, i32 1
  store i8 0, ptr %16, align 4, !tbaa !15
  ret void
}

; Function Attrs: mustprogress nounwind uwtable
define internal noundef zeroext i1 @_ZN12_GLOBAL__N_111DumpVisitor14anyWantNewlineIJNSt3__117basic_string_viewIcNS2_11char_traitsIcEEEEEEEbDpT_(ptr %0, i64 %1) #6 align 2 {
  %3 = alloca i1, align 1
  %4 = alloca %"class.std::__1::basic_string_view", align 8
  %5 = alloca ptr, align 8
  %6 = alloca %"class.std::initializer_list", align 8
  %7 = alloca [1 x i8], align 1
  %8 = alloca %"class.std::__1::basic_string_view", align 8
  %9 = alloca ptr, align 8
  %10 = alloca ptr, align 8
  %11 = alloca i32, align 4
  %12 = alloca i8, align 1
  %13 = getelementptr inbounds nuw { ptr, i64 }, ptr %4, i32 0, i32 0
  store ptr %0, ptr %13, align 8
  %14 = getelementptr inbounds nuw { ptr, i64 }, ptr %4, i32 0, i32 1
  store i64 %1, ptr %14, align 8
  call void @llvm.lifetime.start.p0(i64 8, ptr %5) #19
  call void @llvm.lifetime.start.p0(i64 16, ptr %6) #19
  call void @llvm.lifetime.start.p0(i64 1, ptr %7) #19
  call void @llvm.memcpy.p0.p0.i64(ptr align 8 %8, ptr align 8 %4, i64 16, i1 false), !tbaa.struct !474
  %15 = getelementptr inbounds nuw { ptr, i64 }, ptr %8, i32 0, i32 0
  %16 = load ptr, ptr %15, align 8
  %17 = getelementptr inbounds nuw { ptr, i64 }, ptr %8, i32 0, i32 1
  %18 = load i64, ptr %17, align 8
  %19 = call noundef zeroext i1 (...) @_ZN12_GLOBAL__N_111DumpVisitor12wantsNewlineEz(ptr %16, i64 %18)
  %20 = zext i1 %19 to i8
  store i8 %20, ptr %7, align 1, !tbaa !209
  %21 = getelementptr inbounds nuw %"class.std::initializer_list", ptr %6, i32 0, i32 0
  store ptr %7, ptr %21, align 8, !tbaa !459
  %22 = getelementptr inbounds nuw %"class.std::initializer_list", ptr %6, i32 0, i32 1
  store i64 1, ptr %22, align 8, !tbaa !462
  store ptr %6, ptr %5, align 8, !tbaa !463
  call void @llvm.lifetime.start.p0(i64 8, ptr %9) #19
  %23 = load ptr, ptr %5, align 8, !tbaa !463
  %24 = call noundef ptr @_ZNKSt16initializer_listIbE5beginB8ne210000Ev(ptr noundef nonnull align 8 dereferenceable(16) %23) #19
  store ptr %24, ptr %9, align 8, !tbaa !465
  call void @llvm.lifetime.start.p0(i64 8, ptr %10) #19
  %25 = load ptr, ptr %5, align 8, !tbaa !463
  %26 = call noundef ptr @_ZNKSt16initializer_listIbE3endB8ne210000Ev(ptr noundef nonnull align 8 dereferenceable(16) %25) #19
  store ptr %26, ptr %10, align 8, !tbaa !465
  br label %27

27:                                               ; preds = %44, %2
  %28 = load ptr, ptr %9, align 8, !tbaa !465
  %29 = load ptr, ptr %10, align 8, !tbaa !465
  %30 = icmp ne ptr %28, %29
  br i1 %30, label %32, label %31

31:                                               ; preds = %27
  store i32 2, ptr %11, align 4
  br label %47

32:                                               ; preds = %27
  call void @llvm.lifetime.start.p0(i64 1, ptr %12) #19
  %33 = load ptr, ptr %9, align 8, !tbaa !465
  %34 = load i8, ptr %33, align 1, !tbaa !209, !range !210, !noundef !211
  %35 = trunc i8 %34 to i1
  %36 = zext i1 %35 to i8
  store i8 %36, ptr %12, align 1, !tbaa !209
  %37 = load i8, ptr %12, align 1, !tbaa !209, !range !210, !noundef !211
  %38 = trunc i8 %37 to i1
  br i1 %38, label %39, label %40

39:                                               ; preds = %32
  store i1 true, ptr %3, align 1
  store i32 1, ptr %11, align 4
  br label %41

40:                                               ; preds = %32
  store i32 0, ptr %11, align 4
  br label %41

41:                                               ; preds = %40, %39
  call void @llvm.lifetime.end.p0(i64 1, ptr %12) #19
  %42 = load i32, ptr %11, align 4
  switch i32 %42, label %47 [
    i32 0, label %43
  ]

43:                                               ; preds = %41
  br label %44

44:                                               ; preds = %43
  %45 = load ptr, ptr %9, align 8, !tbaa !465
  %46 = getelementptr inbounds nuw i8, ptr %45, i32 1
  store ptr %46, ptr %9, align 8, !tbaa !465
  br label %27

47:                                               ; preds = %41, %31
  call void @llvm.lifetime.end.p0(i64 8, ptr %10) #19
  call void @llvm.lifetime.end.p0(i64 8, ptr %9) #19
  call void @llvm.lifetime.end.p0(i64 1, ptr %7) #19
  call void @llvm.lifetime.end.p0(i64 16, ptr %6) #19
  call void @llvm.lifetime.end.p0(i64 8, ptr %5) #19
  %48 = load i32, ptr %11, align 4
  switch i32 %48, label %52 [
    i32 2, label %49
    i32 1, label %50
  ]

49:                                               ; preds = %47
  store i1 false, ptr %3, align 1
  br label %50

50:                                               ; preds = %49, %47
  %51 = load i1, ptr %3, align 1
  ret i1 %51

52:                                               ; preds = %47
  unreachable
}

; Function Attrs: mustprogress uwtable
define internal void @_ZN12_GLOBAL__N_111DumpVisitor14CtorArgPrinterclINSt3__117basic_string_viewIcNS3_11char_traitsIcEEEEJEEEvT_DpT0_(ptr noundef nonnull align 8 dereferenceable(8) %0, ptr %1, i64 %2) #3 align 2 {
  %4 = alloca %"class.std::__1::basic_string_view", align 8
  %5 = alloca ptr, align 8
  %6 = alloca %"class.std::__1::basic_string_view", align 8
  %7 = alloca %"class.std::__1::basic_string_view", align 8
  %8 = alloca [1 x i32], align 4
  %9 = getelementptr inbounds nuw { ptr, i64 }, ptr %4, i32 0, i32 0
  store ptr %1, ptr %9, align 8
  %10 = getelementptr inbounds nuw { ptr, i64 }, ptr %4, i32 0, i32 1
  store i64 %2, ptr %10, align 8
  store ptr %0, ptr %5, align 8, !tbaa !455
  %11 = load ptr, ptr %5, align 8
  call void @llvm.memcpy.p0.p0.i64(ptr align 8 %6, ptr align 8 %4, i64 16, i1 false), !tbaa.struct !474
  %12 = getelementptr inbounds nuw { ptr, i64 }, ptr %6, i32 0, i32 0
  %13 = load ptr, ptr %12, align 8
  %14 = getelementptr inbounds nuw { ptr, i64 }, ptr %6, i32 0, i32 1
  %15 = load i64, ptr %14, align 8
  %16 = call noundef zeroext i1 @_ZN12_GLOBAL__N_111DumpVisitor14anyWantNewlineIJNSt3__117basic_string_viewIcNS2_11char_traitsIcEEEEEEEbDpT_(ptr %13, i64 %15)
  br i1 %16, label %17, label %20

17:                                               ; preds = %3
  %18 = getelementptr inbounds nuw %"struct.(anonymous namespace)::DumpVisitor::CtorArgPrinter", ptr %11, i32 0, i32 0
  %19 = load ptr, ptr %18, align 8, !tbaa !457
  call void @_ZN12_GLOBAL__N_111DumpVisitor7newLineEv(ptr noundef nonnull align 4 dereferenceable(5) %19)
  br label %20

20:                                               ; preds = %17, %3
  %21 = getelementptr inbounds nuw %"struct.(anonymous namespace)::DumpVisitor::CtorArgPrinter", ptr %11, i32 0, i32 0
  %22 = load ptr, ptr %21, align 8, !tbaa !457
  call void @llvm.memcpy.p0.p0.i64(ptr align 8 %7, ptr align 8 %4, i64 16, i1 false), !tbaa.struct !474
  %23 = getelementptr inbounds nuw { ptr, i64 }, ptr %7, i32 0, i32 0
  %24 = load ptr, ptr %23, align 8
  %25 = getelementptr inbounds nuw { ptr, i64 }, ptr %7, i32 0, i32 1
  %26 = load i64, ptr %25, align 8
  call void @_ZN12_GLOBAL__N_111DumpVisitor23printWithPendingNewlineINSt3__117basic_string_viewIcNS2_11char_traitsIcEEEEEEvT_(ptr noundef nonnull align 4 dereferenceable(5) %22, ptr %24, i64 %26)
  call void @llvm.lifetime.start.p0(i64 4, ptr %8) #19
  call void @llvm.memset.p0.i64(ptr align 4 %8, i8 0, i64 4, i1 false)
  call void @llvm.lifetime.end.p0(i64 4, ptr %8) #19
  ret void
}

; Function Attrs: mustprogress uwtable
define internal void @_ZNK12_GLOBAL__N_116itanium_demangle16FloatLiteralImplIdE5matchINS_11DumpVisitor14CtorArgPrinterEEEvT_(ptr noundef nonnull align 8 dereferenceable(32) %0, ptr %1) #3 align 2 {
  %3 = alloca %"struct.(anonymous namespace)::DumpVisitor::CtorArgPrinter", align 8
  %4 = alloca ptr, align 8
  %5 = alloca %"class.std::__1::basic_string_view", align 8
  %6 = getelementptr inbounds nuw %"struct.(anonymous namespace)::DumpVisitor::CtorArgPrinter", ptr %3, i32 0, i32 0
  store ptr %1, ptr %6, align 8
  store ptr %0, ptr %4, align 8, !tbaa !176
  %7 = load ptr, ptr %4, align 8
  %8 = getelementptr inbounds nuw %"class.(anonymous namespace)::itanium_demangle::FloatLiteralImpl.3", ptr %7, i32 0, i32 1
  call void @llvm.memcpy.p0.p0.i64(ptr align 8 %5, ptr align 8 %8, i64 16, i1 false), !tbaa.struct !474
  %9 = getelementptr inbounds nuw { ptr, i64 }, ptr %5, i32 0, i32 0
  %10 = load ptr, ptr %9, align 8
  %11 = getelementptr inbounds nuw { ptr, i64 }, ptr %5, i32 0, i32 1
  %12 = load i64, ptr %11, align 8
  call void @_ZN12_GLOBAL__N_111DumpVisitor14CtorArgPrinterclINSt3__117basic_string_viewIcNS3_11char_traitsIcEEEEJEEEvT_DpT0_(ptr noundef nonnull align 8 dereferenceable(8) %3, ptr %10, i64 %12)
  ret void
}

; Function Attrs: mustprogress nounwind uwtable
define internal noundef ptr @_ZN12_GLOBAL__N_116itanium_demangle8NodeKindINS0_16FloatLiteralImplIdEEE4nameEv() #6 align 2 {
  ret ptr @.str.138
}

; Function Attrs: mustprogress uwtable
define internal void @_ZN12_GLOBAL__N_111DumpVisitorclINS_16itanium_demangle16FloatLiteralImplIdEEEEvPKT_(ptr noundef nonnull align 4 dereferenceable(5) %0, ptr noundef %1) #3 align 2 {
  %3 = alloca ptr, align 8
  %4 = alloca ptr, align 8
  %5 = alloca %"struct.(anonymous namespace)::DumpVisitor::CtorArgPrinter", align 8
  store ptr %0, ptr %3, align 8, !tbaa !9
  store ptr %1, ptr %4, align 8, !tbaa !176
  %6 = load ptr, ptr %3, align 8
  %7 = getelementptr inbounds nuw %"struct.(anonymous namespace)::DumpVisitor", ptr %6, i32 0, i32 0
  %8 = load i32, ptr %7, align 4, !tbaa !11
  %9 = add i32 %8, 2
  store i32 %9, ptr %7, align 4, !tbaa !11
  %10 = load ptr, ptr @stderr, align 8, !tbaa !242
  %11 = call noundef ptr @_ZN12_GLOBAL__N_116itanium_demangle8NodeKindINS0_16FloatLiteralImplIdEEE4nameEv()
  %12 = call i32 (ptr, ptr, ...) @fprintf(ptr noundef %10, ptr noundef @.str.8, ptr noundef %11) #19
  %13 = load ptr, ptr %4, align 8, !tbaa !176
  %14 = getelementptr inbounds nuw %"struct.(anonymous namespace)::DumpVisitor::CtorArgPrinter", ptr %5, i32 0, i32 0
  store ptr %6, ptr %14, align 8, !tbaa !9
  %15 = getelementptr inbounds nuw %"struct.(anonymous namespace)::DumpVisitor::CtorArgPrinter", ptr %5, i32 0, i32 0
  %16 = load ptr, ptr %15, align 8
  call void @_ZNK12_GLOBAL__N_116itanium_demangle16FloatLiteralImplIdE5matchINS_11DumpVisitor14CtorArgPrinterEEEvT_(ptr noundef nonnull align 8 dereferenceable(32) %13, ptr %16)
  %17 = load ptr, ptr @stderr, align 8, !tbaa !242
  %18 = call i32 (ptr, ptr, ...) @fprintf(ptr noundef %17, ptr noundef @.str.9) #19
  %19 = getelementptr inbounds nuw %"struct.(anonymous namespace)::DumpVisitor", ptr %6, i32 0, i32 0
  %20 = load i32, ptr %19, align 4, !tbaa !11
  %21 = sub i32 %20, 2
  store i32 %21, ptr %19, align 4, !tbaa !11
  ret void
}